target datalayout = "e-m:e-p270:32:32-p271:32:32-p272:64:64-i64:64-i128:128-f80:128-n8:16:32:64-S128"
target triple = "x86_64-pc-linux-gnu"

%struct.x509_st = type { ptr, ptr, ptr, i32, i32, ptr, %struct.crypto_ex_data_st, i64, i64, i64, i64, i64, i64, ptr, ptr, ptr, ptr, ptr, ptr, [20 x i8], ptr }
%struct.crypto_ex_data_st = type { ptr }
%struct.x509_cinf_st = type { ptr, ptr, ptr, ptr, ptr, ptr, ptr, ptr, ptr, ptr, %struct.ASN1_ENCODING_st }
%struct.ASN1_ENCODING_st = type { ptr, i64, i32 }

@.str = private unnamed_addr constant [126 x i8] c"generated/home/dtcxzyw/WorkSpace/Projects/compilers/llvm-opt-benchmark/bench/libquic/libquic/boringssl/crypto/x509/x509_cmp.c\00", align 1

; Function Attrs: nounwind uwtable
define hidden ptr @X509_get_pubkey(ptr noundef %0) #0 {
  %2 = alloca ptr, align 8
  %3 = alloca ptr, align 8
  store ptr %0, ptr %3, align 8, !tbaa !6
  %4 = load ptr, ptr %3, align 8, !tbaa !6
  %5 = icmp eq ptr %4, null
  br i1 %5, label %11, label %6

6:                                                ; preds = %1
  %7 = load ptr, ptr %3, align 8, !tbaa !6
  %8 = getelementptr inbounds nuw %struct.x509_st, ptr %7, i32 0, i32 0
  %9 = load ptr, ptr %8, align 8, !tbaa !11
  %10 = icmp eq ptr %9, null
  br i1 %10, label %11, label %12

11:                                               ; preds = %6, %1
  store ptr null, ptr %2, align 8
  br label %19

12:                                               ; preds = %6
  %13 = load ptr, ptr %3, align 8, !tbaa !6
  %14 = getelementptr inbounds nuw %struct.x509_st, ptr %13, i32 0, i32 0
  %15 = load ptr, ptr %14, align 8, !tbaa !11
  %16 = getelementptr inbounds nuw %struct.x509_cinf_st, ptr %15, i32 0, i32 6
  %17 = load ptr, ptr %16, align 8, !tbaa !75
  %18 = call ptr @X509_PUBKEY_get(ptr noundef %17)
  store ptr %18, ptr %2, align 8
  br label %19

19:                                               ; preds = %12, %11
  %20 = load ptr, ptr %2, align 8
  ret ptr %20
}

; Function Attrs: nounwind uwtable
define hidden i32 @X509_check_private_key(ptr noundef %0, ptr noundef %1) #0 {
  %3 = alloca i32, align 4
  %4 = alloca ptr, align 8
  %5 = alloca ptr, align 8
  %6 = alloca ptr, align 8
  %7 = alloca i32, align 4
  %8 = alloca i32, align 4
  store ptr %0, ptr %4, align 8, !tbaa !6
  store ptr %1, ptr %5, align 8, !tbaa !79
  call void @llvm.lifetime.start.p0(i64 8, ptr %6) #5
  call void @llvm.lifetime.start.p0(i64 4, ptr %7) #5
  %9 = load ptr, ptr %4, align 8, !tbaa !6
  %10 = call ptr @X509_get_pubkey(ptr noundef %9)
  store ptr %10, ptr %6, align 8, !tbaa !79
  %11 = load ptr, ptr %6, align 8, !tbaa !79
  %12 = icmp ne ptr %11, null
  br i1 %12, label %13, label %17

13:                                               ; preds = %2
  %14 = load ptr, ptr %6, align 8, !tbaa !79
  %15 = load ptr, ptr %5, align 8, !tbaa !79
  %16 = call i32 @EVP_PKEY_cmp(ptr noundef %14, ptr noundef %15)
  store i32 %16, ptr %7, align 4, !tbaa !35
  br label %18

17:                                               ; preds = %2
  store i32 -2, ptr %7, align 4, !tbaa !35
  br label %18

18:                                               ; preds = %17, %13
  %19 = load i32, ptr %7, align 4, !tbaa !35
  switch i32 %19, label %23 [
    i32 1, label %23
    i32 0, label %20
    i32 -1, label %21
    i32 -2, label %22
  ]

20:                                               ; preds = %18
  call void @ERR_put_error(i32 noundef 11, i32 noundef 0, i32 noundef 116, ptr noundef @.str, i32 noundef 331)
  br label %23

21:                                               ; preds = %18
  call void @ERR_put_error(i32 noundef 11, i32 noundef 0, i32 noundef 115, ptr noundef @.str, i32 noundef 334)
  br label %23

22:                                               ; preds = %18
  call void @ERR_put_error(i32 noundef 11, i32 noundef 0, i32 noundef 128, ptr noundef @.str, i32 noundef 337)
  br label %23

23:                                               ; preds = %22, %18, %21, %20, %18
  %24 = load ptr, ptr %6, align 8, !tbaa !79
  %25 = icmp ne ptr %24, null
  br i1 %25, label %26, label %28

26:                                               ; preds = %23
  %27 = load ptr, ptr %6, align 8, !tbaa !79
  call void @EVP_PKEY_free(ptr noundef %27)
  br label %28

28:                                               ; preds = %26, %23
  %29 = load i32, ptr %7, align 4, !tbaa !35
  %30 = icmp sgt i32 %29, 0
  br i1 %30, label %31, label %32

31:                                               ; preds = %28
  store i32 1, ptr %3, align 4
  store i32 1, ptr %8, align 4
  br label %33

32:                                               ; preds = %28
  store i32 0, ptr %3, align 4
  store i32 1, ptr %8, align 4
  br label %33

33:                                               ; preds = %32, %31
  call void @llvm.lifetime.end.p0(i64 4, ptr %7) #5
  call void @llvm.lifetime.end.p0(i64 8, ptr %6) #5
  %34 = load i32, ptr %3, align 4
  ret i32 %34
}