; Function Attrs: nounwind uwtable
define hidden range(i32 0, 2) i32 @X509_check_private_key(ptr noundef readonly captures(address_is_null) %0, ptr noundef %1) local_unnamed_addr #0 {
  %3 = icmp eq ptr %0, null
  br i1 %3, label %.thread35, label %4

4:                                                ; preds = %2
  %5 = load ptr, ptr %0, align 8, !tbaa !6
  %6 = icmp eq ptr %5, null
  br i1 %6, label %.thread35, label %X509_get_pubkey.exit

X509_get_pubkey.exit:                             ; preds = %4
  %7 = getelementptr inbounds nuw i8, ptr %5, i64 48
  %8 = load ptr, ptr %7, align 8, !tbaa !62
  %9 = tail call ptr @X509_PUBKEY_get(ptr noundef %8) #8
  %.not = icmp eq ptr %9, null
  br i1 %.not, label %.thread35, label %10

.thread35:                                        ; preds = %X509_get_pubkey.exit, %4, %2
  tail call void @ERR_put_error(i32 noundef 11, i32 noundef 0, i32 noundef 128, ptr noundef nonnull @.str, i32 noundef 337) #8
  br label %16

10:                                               ; preds = %X509_get_pubkey.exit
  %11 = tail call i32 @EVP_PKEY_cmp(ptr noundef nonnull %9, ptr noundef %1) #8
  switch i32 %11, label %14 [
    i32 -2, label %.thread37
    i32 0, label %12
    i32 -1, label %13
  ]

12:                                               ; preds = %10
  tail call void @ERR_put_error(i32 noundef 11, i32 noundef 0, i32 noundef 116, ptr noundef nonnull @.str, i32 noundef 331) #8
  br label %.thread41

13:                                               ; preds = %10
  tail call void @ERR_put_error(i32 noundef 11, i32 noundef 0, i32 noundef 115, ptr noundef nonnull @.str, i32 noundef 334) #8
  br label %.thread41

.thread37:                                        ; preds = %10
  tail call void @ERR_put_error(i32 noundef 11, i32 noundef 0, i32 noundef 128, ptr noundef nonnull @.str, i32 noundef 337) #8
  tail call void @EVP_PKEY_free(ptr noundef nonnull %9) #8
  br label %16

.thread41:                                        ; preds = %13, %12
  tail call void @EVP_PKEY_free(ptr noundef nonnull %9) #8
  br label %16

14:                                               ; preds = %10
  tail call void @EVP_PKEY_free(ptr noundef nonnull %9) #8
  %15 = icmp sgt i32 %11, 0
  %spec.select = zext i1 %15 to i32
  br label %16

16:                                               ; preds = %14, %.thread41, %.thread37, %.thread35
  %17 = phi i32 [ 0, %.thread35 ], [ 0, %.thread37 ], [ 0, %.thread41 ], [ %spec.select, %14 ]
  ret i32 %17
}